
test.elf:     file format elf32-littleriscv


Disassembly of section .text:

00000000 <_start>:
   0:	f2010113          	addi	sp,sp,-224
   4:	0c112e23          	sw	ra,220(sp)
   8:	0c812c23          	sw	s0,216(sp)
   c:	0e010413          	addi	s0,sp,224
  10:	fa042423          	sw	zero,-88(s0)
  14:	fa042623          	sw	zero,-84(s0)
  18:	fa042823          	sw	zero,-80(s0)
  1c:	fa042a23          	sw	zero,-76(s0)
  20:	fa042c23          	sw	zero,-72(s0)
  24:	fa042e23          	sw	zero,-68(s0)
  28:	fc042023          	sw	zero,-64(s0)
  2c:	fc042223          	sw	zero,-60(s0)
  30:	fc042423          	sw	zero,-56(s0)
  34:	fc042623          	sw	zero,-52(s0)
  38:	f8042023          	sw	zero,-128(s0)
  3c:	f8042223          	sw	zero,-124(s0)
  40:	f8042423          	sw	zero,-120(s0)
  44:	f8042623          	sw	zero,-116(s0)
  48:	f8042823          	sw	zero,-112(s0)
  4c:	f8042a23          	sw	zero,-108(s0)
  50:	f8042c23          	sw	zero,-104(s0)
  54:	f8042e23          	sw	zero,-100(s0)
  58:	fa042023          	sw	zero,-96(s0)
  5c:	fa042223          	sw	zero,-92(s0)
  60:	f4042c23          	sw	zero,-168(s0)
  64:	f4042e23          	sw	zero,-164(s0)
  68:	f6042023          	sw	zero,-160(s0)
  6c:	f6042223          	sw	zero,-156(s0)
  70:	f6042423          	sw	zero,-152(s0)
  74:	f6042623          	sw	zero,-148(s0)
  78:	f6042823          	sw	zero,-144(s0)
  7c:	f6042a23          	sw	zero,-140(s0)
  80:	f6042c23          	sw	zero,-136(s0)
  84:	f6042e23          	sw	zero,-132(s0)
  88:	00500793          	li	a5,5
  8c:	f4f42a23          	sw	a5,-172(s0)
  90:	00500793          	li	a5,5
  94:	f4f42823          	sw	a5,-176(s0)
  98:	f5442703          	lw	a4,-172(s0)
  9c:	f5042783          	lw	a5,-176(s0)
  a0:	00f707b3          	add	a5,a4,a5
  a4:	fff78793          	addi	a5,a5,-1
  a8:	f4f42623          	sw	a5,-180(s0)
  ac:	42400793          	li	a5,1060
  b0:	0007a583          	lw	a1,0(a5)
  b4:	0047a603          	lw	a2,4(a5)
  b8:	0087a683          	lw	a3,8(a5)
  bc:	00c7a703          	lw	a4,12(a5)
  c0:	0107a783          	lw	a5,16(a5)
  c4:	f2b42c23          	sw	a1,-200(s0)
  c8:	f2c42e23          	sw	a2,-196(s0)
  cc:	f4d42023          	sw	a3,-192(s0)
  d0:	f4e42223          	sw	a4,-188(s0)
  d4:	f4f42423          	sw	a5,-184(s0)
  d8:	43800793          	li	a5,1080
  dc:	0007a583          	lw	a1,0(a5)
  e0:	0047a603          	lw	a2,4(a5)
  e4:	0087a683          	lw	a3,8(a5)
  e8:	00c7a703          	lw	a4,12(a5)
  ec:	0107a783          	lw	a5,16(a5)
  f0:	f2b42223          	sw	a1,-220(s0)
  f4:	f2c42423          	sw	a2,-216(s0)
  f8:	f2d42623          	sw	a3,-212(s0)
  fc:	f2e42823          	sw	a4,-208(s0)
 100:	f2f42a23          	sw	a5,-204(s0)
 104:	fe042623          	sw	zero,-20(s0)
 108:	05c0006f          	j	164 <_start+0x164>
 10c:	f5442783          	lw	a5,-172(s0)
 110:	fec42703          	lw	a4,-20(s0)
 114:	02f75863          	bge	a4,a5,144 <_start+0x144>
 118:	fec42783          	lw	a5,-20(s0)
 11c:	00279793          	slli	a5,a5,0x2
 120:	ff040713          	addi	a4,s0,-16
 124:	00f707b3          	add	a5,a4,a5
 128:	f487a787          	flw	fa5,-184(a5)
 12c:	fec42783          	lw	a5,-20(s0)
 130:	00279793          	slli	a5,a5,0x2
 134:	ff040713          	addi	a4,s0,-16
 138:	00f707b3          	add	a5,a4,a5
 13c:	f8f7a827          	fsw	fa5,-112(a5)
 140:	0180006f          	j	158 <_start+0x158>
 144:	fec42783          	lw	a5,-20(s0)
 148:	00279793          	slli	a5,a5,0x2
 14c:	ff040713          	addi	a4,s0,-16
 150:	00f707b3          	add	a5,a4,a5
 154:	f807a823          	sw	zero,-112(a5)
 158:	fec42783          	lw	a5,-20(s0)
 15c:	00178793          	addi	a5,a5,1
 160:	fef42623          	sw	a5,-20(s0)
 164:	f4c42783          	lw	a5,-180(s0)
 168:	fec42703          	lw	a4,-20(s0)
 16c:	fae7d0e3          	bge	a5,a4,10c <_start+0x10c>
 170:	fe042423          	sw	zero,-24(s0)
 174:	05c0006f          	j	1d0 <_start+0x1d0>
 178:	f5042783          	lw	a5,-176(s0)
 17c:	fe842703          	lw	a4,-24(s0)
 180:	02f75863          	bge	a4,a5,1b0 <_start+0x1b0>
 184:	fe842783          	lw	a5,-24(s0)
 188:	00279793          	slli	a5,a5,0x2
 18c:	ff040713          	addi	a4,s0,-16
 190:	00f707b3          	add	a5,a4,a5
 194:	f347a787          	flw	fa5,-204(a5)
 198:	fe842783          	lw	a5,-24(s0)
 19c:	00279793          	slli	a5,a5,0x2
 1a0:	ff040713          	addi	a4,s0,-16
 1a4:	00f707b3          	add	a5,a4,a5
 1a8:	f6f7a427          	fsw	fa5,-152(a5)
 1ac:	0180006f          	j	1c4 <_start+0x1c4>
 1b0:	fe842783          	lw	a5,-24(s0)
 1b4:	00279793          	slli	a5,a5,0x2
 1b8:	ff040713          	addi	a4,s0,-16
 1bc:	00f707b3          	add	a5,a4,a5
 1c0:	f607a423          	sw	zero,-152(a5)
 1c4:	fe842783          	lw	a5,-24(s0)
 1c8:	00178793          	addi	a5,a5,1
 1cc:	fef42423          	sw	a5,-24(s0)
 1d0:	f4c42783          	lw	a5,-180(s0)
 1d4:	fe842703          	lw	a4,-24(s0)
 1d8:	fae7d0e3          	bge	a5,a4,178 <_start+0x178>
 1dc:	fe042223          	sw	zero,-28(s0)
 1e0:	0a40006f          	j	284 <_start+0x284>
 1e4:	fe442783          	lw	a5,-28(s0)
 1e8:	00279793          	slli	a5,a5,0x2
 1ec:	ff040713          	addi	a4,s0,-16
 1f0:	00f707b3          	add	a5,a4,a5
 1f4:	fa07ac23          	sw	zero,-72(a5)
 1f8:	fe042023          	sw	zero,-32(s0)
 1fc:	0700006f          	j	26c <_start+0x26c>
 200:	fe442783          	lw	a5,-28(s0)
 204:	00279793          	slli	a5,a5,0x2
 208:	ff040713          	addi	a4,s0,-16
 20c:	00f707b3          	add	a5,a4,a5
 210:	fb87a707          	flw	fa4,-72(a5)
 214:	fe042783          	lw	a5,-32(s0)
 218:	00279793          	slli	a5,a5,0x2
 21c:	ff040713          	addi	a4,s0,-16
 220:	00f707b3          	add	a5,a4,a5
 224:	f907a687          	flw	fa3,-112(a5)
 228:	fe442703          	lw	a4,-28(s0)
 22c:	fe042783          	lw	a5,-32(s0)
 230:	40f707b3          	sub	a5,a4,a5
 234:	00279793          	slli	a5,a5,0x2
 238:	ff040713          	addi	a4,s0,-16
 23c:	00f707b3          	add	a5,a4,a5
 240:	f687a787          	flw	fa5,-152(a5)
 244:	10f6f7d3          	fmul.s	fa5,fa3,fa5
 248:	00f777d3          	fadd.s	fa5,fa4,fa5
 24c:	fe442783          	lw	a5,-28(s0)
 250:	00279793          	slli	a5,a5,0x2
 254:	ff040713          	addi	a4,s0,-16
 258:	00f707b3          	add	a5,a4,a5
 25c:	faf7ac27          	fsw	fa5,-72(a5)
 260:	fe042783          	lw	a5,-32(s0)
 264:	00178793          	addi	a5,a5,1
 268:	fef42023          	sw	a5,-32(s0)
 26c:	fe042703          	lw	a4,-32(s0)
 270:	fe442783          	lw	a5,-28(s0)
 274:	f8e7d6e3          	bge	a5,a4,200 <_start+0x200>
 278:	fe442783          	lw	a5,-28(s0)
 27c:	00178793          	addi	a5,a5,1
 280:	fef42223          	sw	a5,-28(s0)
 284:	f4c42783          	lw	a5,-180(s0)
 288:	fe442703          	lw	a4,-28(s0)
 28c:	f4f74ce3          	blt	a4,a5,1e4 <_start+0x1e4>
 290:	41400513          	li	a0,1044
 294:	12c000ef          	jal	ra,3c0 <string_uart>
 298:	00a00793          	li	a5,10
 29c:	fcf42c23          	sw	a5,-40(s0)
 2a0:	10800793          	li	a5,264
 2a4:	fcf42a23          	sw	a5,-44(s0)
 2a8:	fd442783          	lw	a5,-44(s0)
 2ac:	fd842703          	lw	a4,-40(s0)
 2b0:	00e7a023          	sw	a4,0(a5)
 2b4:	fc042e23          	sw	zero,-36(s0)
 2b8:	02c0006f          	j	2e4 <_start+0x2e4>
 2bc:	fdc42783          	lw	a5,-36(s0)
 2c0:	00279793          	slli	a5,a5,0x2
 2c4:	ff040713          	addi	a4,s0,-16
 2c8:	00f707b3          	add	a5,a4,a5
 2cc:	fb87a787          	flw	fa5,-72(a5)
 2d0:	20f78553          	fmv.s	fa0,fa5
 2d4:	034000ef          	jal	ra,308 <float_uart>
 2d8:	fdc42783          	lw	a5,-36(s0)
 2dc:	00178793          	addi	a5,a5,1
 2e0:	fcf42e23          	sw	a5,-36(s0)
 2e4:	f4c42783          	lw	a5,-180(s0)
 2e8:	fdc42703          	lw	a4,-36(s0)
 2ec:	fcf748e3          	blt	a4,a5,2bc <_start+0x2bc>
 2f0:	00400793          	li	a5,4
 2f4:	fcf42823          	sw	a5,-48(s0)
 2f8:	fd442783          	lw	a5,-44(s0)
 2fc:	fd042703          	lw	a4,-48(s0)
 300:	00e7a023          	sw	a4,0(a5)
 304:	0000006f          	j	304 <_start+0x304>

00000308 <float_uart>:
 308:	fc010113          	addi	sp,sp,-64
 30c:	02812e23          	sw	s0,60(sp)
 310:	04010413          	addi	s0,sp,64
 314:	fca42627          	fsw	fa0,-52(s0)
 318:	fcc40793          	addi	a5,s0,-52
 31c:	0007a783          	lw	a5,0(a5)
 320:	fef42023          	sw	a5,-32(s0)
 324:	fe042623          	sw	zero,-20(s0)
 328:	0380006f          	j	360 <float_uart+0x58>
 32c:	fe042703          	lw	a4,-32(s0)
 330:	fec42783          	lw	a5,-20(s0)
 334:	00379793          	slli	a5,a5,0x3
 338:	40f757b3          	sra	a5,a4,a5
 33c:	0ff7f713          	andi	a4,a5,255
 340:	fec42783          	lw	a5,-20(s0)
 344:	00279793          	slli	a5,a5,0x2
 348:	ff040693          	addi	a3,s0,-16
 34c:	00f687b3          	add	a5,a3,a5
 350:	fee7a023          	sw	a4,-32(a5)
 354:	fec42783          	lw	a5,-20(s0)
 358:	00178793          	addi	a5,a5,1
 35c:	fef42623          	sw	a5,-20(s0)
 360:	fec42703          	lw	a4,-20(s0)
 364:	00300793          	li	a5,3
 368:	fce7d2e3          	bge	a5,a4,32c <float_uart+0x24>
 36c:	00300793          	li	a5,3
 370:	fef42423          	sw	a5,-24(s0)
 374:	0340006f          	j	3a8 <float_uart+0xa0>
 378:	10800793          	li	a5,264
 37c:	fef42223          	sw	a5,-28(s0)
 380:	fe842783          	lw	a5,-24(s0)
 384:	00279793          	slli	a5,a5,0x2
 388:	ff040713          	addi	a4,s0,-16
 38c:	00f707b3          	add	a5,a4,a5
 390:	fe07a703          	lw	a4,-32(a5)
 394:	fe442783          	lw	a5,-28(s0)
 398:	00e7a023          	sw	a4,0(a5)
 39c:	fe842783          	lw	a5,-24(s0)
 3a0:	fff78793          	addi	a5,a5,-1
 3a4:	fef42423          	sw	a5,-24(s0)
 3a8:	fe842783          	lw	a5,-24(s0)
 3ac:	fc07d6e3          	bgez	a5,378 <float_uart+0x70>
 3b0:	00000013          	nop
 3b4:	03c12403          	lw	s0,60(sp)
 3b8:	04010113          	addi	sp,sp,64
 3bc:	00008067          	ret

000003c0 <string_uart>:
 3c0:	fd010113          	addi	sp,sp,-48
 3c4:	02812623          	sw	s0,44(sp)
 3c8:	03010413          	addi	s0,sp,48
 3cc:	fca42e23          	sw	a0,-36(s0)
 3d0:	10800793          	li	a5,264
 3d4:	fef42623          	sw	a5,-20(s0)
 3d8:	0200006f          	j	3f8 <string_uart+0x38>
 3dc:	fdc42783          	lw	a5,-36(s0)
 3e0:	0007c703          	lbu	a4,0(a5)
 3e4:	fec42783          	lw	a5,-20(s0)
 3e8:	00e78023          	sb	a4,0(a5)
 3ec:	fdc42783          	lw	a5,-36(s0)
 3f0:	00178793          	addi	a5,a5,1
 3f4:	fcf42e23          	sw	a5,-36(s0)
 3f8:	fdc42783          	lw	a5,-36(s0)
 3fc:	0007c783          	lbu	a5,0(a5)
 400:	fc079ee3          	bnez	a5,3dc <string_uart+0x1c>
 404:	00000013          	nop
 408:	02c12403          	lw	s0,44(sp)
 40c:	03010113          	addi	sp,sp,48
 410:	00008067          	ret

Disassembly of section .rodata:

00000414 <.rodata>:
 414:	6854                	flw	fa3,20(s0)
 416:	2065                	jal	4be <string_uart+0xfe>
 418:	6e41                	lui	t3,0x10
 41a:	72657773          	csrrci	a4,0x726,10
 41e:	6920                	flw	fs0,80(a0)
 420:	003a2073          	csrs	fcsr,s4
 424:	0000                	unimp
 426:	3fa0                	fld	fs0,120(a5)
 428:	47ae                	lw	a5,200(sp)
 42a:	40b1                	li	ra,12
 42c:	999a                	add	s3,s3,t1
 42e:	4069                	c.li	zero,26
 430:	b852                	fsd	fs4,48(sp)
 432:	4086                	lw	ra,64(sp)
 434:	e148                	fsw	fa0,4(a0)
 436:	40b2                	lw	ra,12(sp)
 438:	d70a                	sw	sp,172(sp)
 43a:	7ae14123          	0x7ae14123
 43e:	40b4                	lw	a3,64(s1)
 440:	0000                	unimp
 442:	4110                	lw	a2,0(a0)
 444:	3fb33333          	0x3fb33333
 448:	0000                	unimp
 44a:	40b0                	lw	a2,64(s1)

Disassembly of section .comment:

00000000 <.comment>:
   0:	3a434347          	fmsub.d	ft6,ft6,ft4,ft7,rmm
   4:	2820                	fld	fs0,80(s0)
   6:	69466953          	0x69466953
   a:	6576                	flw	fa0,92(sp)
   c:	4720                	lw	s0,72(a4)
   e:	38204343          	fmadd.s	ft6,ft0,ft2,ft7,rmm
  12:	332e                	fld	ft6,232(sp)
  14:	302e                	fld	ft0,232(sp)
  16:	322d                	jal	fffff940 <string_uart+0xfffff580>
  18:	3130                	fld	fa2,96(a0)
  1a:	2e39                	jal	338 <float_uart+0x30>
  1c:	3830                	fld	fa2,112(s0)
  1e:	302e                	fld	ft0,232(sp)
  20:	2029                	jal	2a <_start+0x2a>
  22:	2e38                	fld	fa4,88(a2)
  24:	00302e33          	sgtz	t3,gp

Disassembly of section .riscv.attributes:

00000000 <.riscv.attributes>:
   0:	2041                	jal	80 <_start+0x80>
   2:	0000                	unimp
   4:	7200                	flw	fs0,32(a2)
   6:	7369                	lui	t1,0xffffa
   8:	01007663          	bgeu	zero,a6,14 <_start+0x14>
   c:	0016                	c.slli	zero,0x5
   e:	0000                	unimp
  10:	1004                	addi	s1,sp,32
  12:	7205                	lui	tp,0xfffe1
  14:	3376                	fld	ft6,376(sp)
  16:	6932                	flw	fs2,12(sp)
  18:	7032                	flw	ft0,44(sp)
  1a:	5f30                	lw	a2,120(a4)
  1c:	3266                	fld	ft4,120(sp)
  1e:	3070                	fld	fa2,224(s0)
	...
