
test.elf:     file format elf32-littleriscv


Disassembly of section .text:

00000000 <_start>:
   0:	f2010113          	addi	sp,sp,-224
   4:	0c112e23          	sw	ra,220(sp)
   8:	0c812c23          	sw	s0,216(sp)
   c:	0e010413          	addi	s0,sp,224
  10:	fa042423          	sw	zero,-88(s0)
  14:	fa042623          	sw	zero,-84(s0)
  18:	fa042823          	sw	zero,-80(s0)
  1c:	fa042a23          	sw	zero,-76(s0)
  20:	fa042c23          	sw	zero,-72(s0)
  24:	fa042e23          	sw	zero,-68(s0)
  28:	fc042023          	sw	zero,-64(s0)
  2c:	fc042223          	sw	zero,-60(s0)
  30:	fc042423          	sw	zero,-56(s0)
  34:	fc042623          	sw	zero,-52(s0)
  38:	f8042023          	sw	zero,-128(s0)
  3c:	f8042223          	sw	zero,-124(s0)
  40:	f8042423          	sw	zero,-120(s0)
  44:	f8042623          	sw	zero,-116(s0)
  48:	f8042823          	sw	zero,-112(s0)
  4c:	f8042a23          	sw	zero,-108(s0)
  50:	f8042c23          	sw	zero,-104(s0)
  54:	f8042e23          	sw	zero,-100(s0)
  58:	fa042023          	sw	zero,-96(s0)
  5c:	fa042223          	sw	zero,-92(s0)
  60:	f4042c23          	sw	zero,-168(s0)
  64:	f4042e23          	sw	zero,-164(s0)
  68:	f6042023          	sw	zero,-160(s0)
  6c:	f6042223          	sw	zero,-156(s0)
  70:	f6042423          	sw	zero,-152(s0)
  74:	f6042623          	sw	zero,-148(s0)
  78:	f6042823          	sw	zero,-144(s0)
  7c:	f6042a23          	sw	zero,-140(s0)
  80:	f6042c23          	sw	zero,-136(s0)
  84:	f6042e23          	sw	zero,-132(s0)
  88:	00500793          	li	a5,5
  8c:	f4f42a23          	sw	a5,-172(s0)
  90:	00500793          	li	a5,5
  94:	f4f42823          	sw	a5,-176(s0)
  98:	f5442703          	lw	a4,-172(s0)
  9c:	f5042783          	lw	a5,-176(s0)
  a0:	00f707b3          	add	a5,a4,a5
  a4:	fff78793          	addi	a5,a5,-1
  a8:	f4f42623          	sw	a5,-180(s0)
  ac:	60800793          	li	a5,1544
  b0:	0007a583          	lw	a1,0(a5)
  b4:	0047a603          	lw	a2,4(a5)
  b8:	0087a683          	lw	a3,8(a5)
  bc:	00c7a703          	lw	a4,12(a5)
  c0:	0107a783          	lw	a5,16(a5)
  c4:	f2b42c23          	sw	a1,-200(s0)
  c8:	f2c42e23          	sw	a2,-196(s0)
  cc:	f4d42023          	sw	a3,-192(s0)
  d0:	f4e42223          	sw	a4,-188(s0)
  d4:	f4f42423          	sw	a5,-184(s0)
  d8:	61c00793          	li	a5,1564
  dc:	0007a583          	lw	a1,0(a5)
  e0:	0047a603          	lw	a2,4(a5)
  e4:	0087a683          	lw	a3,8(a5)
  e8:	00c7a703          	lw	a4,12(a5)
  ec:	0107a783          	lw	a5,16(a5)
  f0:	f2b42223          	sw	a1,-220(s0)
  f4:	f2c42423          	sw	a2,-216(s0)
  f8:	f2d42623          	sw	a3,-212(s0)
  fc:	f2e42823          	sw	a4,-208(s0)
 100:	f2f42a23          	sw	a5,-204(s0)
 104:	fe042623          	sw	zero,-20(s0)
 108:	05c0006f          	j	164 <_start+0x164>
 10c:	f5442783          	lw	a5,-172(s0)
 110:	fec42703          	lw	a4,-20(s0)
 114:	02f75863          	bge	a4,a5,144 <_start+0x144>
 118:	fec42783          	lw	a5,-20(s0)
 11c:	00279793          	slli	a5,a5,0x2
 120:	ff040713          	addi	a4,s0,-16
 124:	00f707b3          	add	a5,a4,a5
 128:	f487a787          	flw	fa5,-184(a5)
 12c:	fec42783          	lw	a5,-20(s0)
 130:	00279793          	slli	a5,a5,0x2
 134:	ff040713          	addi	a4,s0,-16
 138:	00f707b3          	add	a5,a4,a5
 13c:	f8f7a827          	fsw	fa5,-112(a5)
 140:	0180006f          	j	158 <_start+0x158>
 144:	fec42783          	lw	a5,-20(s0)
 148:	00279793          	slli	a5,a5,0x2
 14c:	ff040713          	addi	a4,s0,-16
 150:	00f707b3          	add	a5,a4,a5
 154:	f807a823          	sw	zero,-112(a5)
 158:	fec42783          	lw	a5,-20(s0)
 15c:	00178793          	addi	a5,a5,1
 160:	fef42623          	sw	a5,-20(s0)
 164:	f4c42783          	lw	a5,-180(s0)
 168:	fec42703          	lw	a4,-20(s0)
 16c:	fae7d0e3          	bge	a5,a4,10c <_start+0x10c>
 170:	fe042423          	sw	zero,-24(s0)
 174:	05c0006f          	j	1d0 <_start+0x1d0>
 178:	f5042783          	lw	a5,-176(s0)
 17c:	fe842703          	lw	a4,-24(s0)
 180:	02f75863          	bge	a4,a5,1b0 <_start+0x1b0>
 184:	fe842783          	lw	a5,-24(s0)
 188:	00279793          	slli	a5,a5,0x2
 18c:	ff040713          	addi	a4,s0,-16
 190:	00f707b3          	add	a5,a4,a5
 194:	f347a787          	flw	fa5,-204(a5)
 198:	fe842783          	lw	a5,-24(s0)
 19c:	00279793          	slli	a5,a5,0x2
 1a0:	ff040713          	addi	a4,s0,-16
 1a4:	00f707b3          	add	a5,a4,a5
 1a8:	f6f7a427          	fsw	fa5,-152(a5)
 1ac:	0180006f          	j	1c4 <_start+0x1c4>
 1b0:	fe842783          	lw	a5,-24(s0)
 1b4:	00279793          	slli	a5,a5,0x2
 1b8:	ff040713          	addi	a4,s0,-16
 1bc:	00f707b3          	add	a5,a4,a5
 1c0:	f607a423          	sw	zero,-152(a5)
 1c4:	fe842783          	lw	a5,-24(s0)
 1c8:	00178793          	addi	a5,a5,1
 1cc:	fef42423          	sw	a5,-24(s0)
 1d0:	f4c42783          	lw	a5,-180(s0)
 1d4:	fe842703          	lw	a4,-24(s0)
 1d8:	fae7d0e3          	bge	a5,a4,178 <_start+0x178>
 1dc:	fe042223          	sw	zero,-28(s0)
 1e0:	0a40006f          	j	284 <_start+0x284>
 1e4:	fe442783          	lw	a5,-28(s0)
 1e8:	00279793          	slli	a5,a5,0x2
 1ec:	ff040713          	addi	a4,s0,-16
 1f0:	00f707b3          	add	a5,a4,a5
 1f4:	fa07ac23          	sw	zero,-72(a5)
 1f8:	fe042023          	sw	zero,-32(s0)
 1fc:	0700006f          	j	26c <_start+0x26c>
 200:	fe442783          	lw	a5,-28(s0)
 204:	00279793          	slli	a5,a5,0x2
 208:	ff040713          	addi	a4,s0,-16
 20c:	00f707b3          	add	a5,a4,a5
 210:	fb87a707          	flw	fa4,-72(a5)
 214:	fe042783          	lw	a5,-32(s0)
 218:	00279793          	slli	a5,a5,0x2
 21c:	ff040713          	addi	a4,s0,-16
 220:	00f707b3          	add	a5,a4,a5
 224:	f907a687          	flw	fa3,-112(a5)
 228:	fe442703          	lw	a4,-28(s0)
 22c:	fe042783          	lw	a5,-32(s0)
 230:	40f707b3          	sub	a5,a4,a5
 234:	00279793          	slli	a5,a5,0x2
 238:	ff040713          	addi	a4,s0,-16
 23c:	00f707b3          	add	a5,a4,a5
 240:	f687a787          	flw	fa5,-152(a5)
 244:	10f6f7d3          	fmul.s	fa5,fa3,fa5
 248:	00f777d3          	fadd.s	fa5,fa4,fa5
 24c:	fe442783          	lw	a5,-28(s0)
 250:	00279793          	slli	a5,a5,0x2
 254:	ff040713          	addi	a4,s0,-16
 258:	00f707b3          	add	a5,a4,a5
 25c:	faf7ac27          	fsw	fa5,-72(a5)
 260:	fe042783          	lw	a5,-32(s0)
 264:	00178793          	addi	a5,a5,1
 268:	fef42023          	sw	a5,-32(s0)
 26c:	fe042703          	lw	a4,-32(s0)
 270:	fe442783          	lw	a5,-28(s0)
 274:	f8e7d6e3          	bge	a5,a4,200 <_start+0x200>
 278:	fe442783          	lw	a5,-28(s0)
 27c:	00178793          	addi	a5,a5,1
 280:	fef42223          	sw	a5,-28(s0)
 284:	f4c42783          	lw	a5,-180(s0)
 288:	fe442703          	lw	a4,-28(s0)
 28c:	f4f74ce3          	blt	a4,a5,1e4 <_start+0x1e4>
 290:	60000513          	li	a0,1536
 294:	198000ef          	jal	ra,42c <string_uart>
 298:	00a00793          	li	a5,10
 29c:	fcf42c23          	sw	a5,-40(s0)
 2a0:	10800793          	li	a5,264
 2a4:	fcf42a23          	sw	a5,-44(s0)
 2a8:	fd442783          	lw	a5,-44(s0)
 2ac:	fd842703          	lw	a4,-40(s0)
 2b0:	00e7a023          	sw	a4,0(a5)
 2b4:	fc042e23          	sw	zero,-36(s0)
 2b8:	0380006f          	j	2f0 <_start+0x2f0>
 2bc:	fdc42783          	lw	a5,-36(s0)
 2c0:	00279793          	slli	a5,a5,0x2
 2c4:	ff040713          	addi	a4,s0,-16
 2c8:	00f707b3          	add	a5,a4,a5
 2cc:	fb87a787          	flw	fa5,-72(a5)
 2d0:	20f78553          	fmv.s	fa0,fa5
 2d4:	040000ef          	jal	ra,314 <float_uart>
 2d8:	fd442783          	lw	a5,-44(s0)
 2dc:	fd842703          	lw	a4,-40(s0)
 2e0:	00e7a023          	sw	a4,0(a5)
 2e4:	fdc42783          	lw	a5,-36(s0)
 2e8:	00178793          	addi	a5,a5,1
 2ec:	fcf42e23          	sw	a5,-36(s0)
 2f0:	f4c42783          	lw	a5,-180(s0)
 2f4:	fdc42703          	lw	a4,-36(s0)
 2f8:	fcf742e3          	blt	a4,a5,2bc <_start+0x2bc>
 2fc:	00400793          	li	a5,4
 300:	fcf42823          	sw	a5,-48(s0)
 304:	fd442783          	lw	a5,-44(s0)
 308:	fd042703          	lw	a4,-48(s0)
 30c:	00e7a023          	sw	a4,0(a5)
 310:	0000006f          	j	310 <_start+0x310>

00000314 <float_uart>:
 314:	fc010113          	addi	sp,sp,-64
 318:	02112e23          	sw	ra,60(sp)
 31c:	02812c23          	sw	s0,56(sp)
 320:	04010413          	addi	s0,sp,64
 324:	fca42627          	fsw	fa0,-52(s0)
 328:	fcc42787          	flw	fa5,-52(s0)
 32c:	f0000753          	fmv.w.x	fa4,zero
 330:	a0e797d3          	flt.s	a5,fa5,fa4
 334:	00078c63          	beqz	a5,34c <float_uart+0x38>
 338:	63000513          	li	a0,1584
 33c:	0f0000ef          	jal	ra,42c <string_uart>
 340:	fcc42787          	flw	fa5,-52(s0)
 344:	20f797d3          	fneg.s	fa5,fa5
 348:	fcf42627          	fsw	fa5,-52(s0)
 34c:	fcc42787          	flw	fa5,-52(s0)
 350:	c00797d3          	fcvt.w.s	a5,fa5,rtz
 354:	fef42623          	sw	a5,-20(s0)
 358:	fec42783          	lw	a5,-20(s0)
 35c:	d007f7d3          	fcvt.s.w	fa5,a5
 360:	fcc42707          	flw	fa4,-52(s0)
 364:	08f777d3          	fsub.s	fa5,fa4,fa5
 368:	fef42427          	fsw	fa5,-24(s0)
 36c:	fe842787          	flw	fa5,-24(s0)
 370:	f0000753          	fmv.w.x	fa4,zero
 374:	a0e797d3          	flt.s	a5,fa5,fa4
 378:	02078263          	beqz	a5,39c <float_uart+0x88>
 37c:	fec42783          	lw	a5,-20(s0)
 380:	fff78793          	addi	a5,a5,-1
 384:	fef42623          	sw	a5,-20(s0)
 388:	fec42783          	lw	a5,-20(s0)
 38c:	d007f7d3          	fcvt.s.w	fa5,a5
 390:	fcc42707          	flw	fa4,-52(s0)
 394:	08f777d3          	fsub.s	fa5,fa4,fa5
 398:	fef42427          	fsw	fa5,-24(s0)
 39c:	fe842707          	flw	fa4,-24(s0)
 3a0:	63c02787          	flw	fa5,1596(zero) # 63c <int_string+0x11c>
 3a4:	10f777d3          	fmul.s	fa5,fa4,fa5
 3a8:	c00797d3          	fcvt.w.s	a5,fa5,rtz
 3ac:	fef42223          	sw	a5,-28(s0)
 3b0:	fdc40793          	addi	a5,s0,-36
 3b4:	fec42583          	lw	a1,-20(s0)
 3b8:	00078513          	mv	a0,a5
 3bc:	164000ef          	jal	ra,520 <int_string>
 3c0:	fdc44783          	lbu	a5,-36(s0)
 3c4:	00079863          	bnez	a5,3d4 <float_uart+0xc0>
 3c8:	63400513          	li	a0,1588
 3cc:	060000ef          	jal	ra,42c <string_uart>
 3d0:	0100006f          	j	3e0 <float_uart+0xcc>
 3d4:	fdc40793          	addi	a5,s0,-36
 3d8:	00078513          	mv	a0,a5
 3dc:	050000ef          	jal	ra,42c <string_uart>
 3e0:	63800513          	li	a0,1592
 3e4:	048000ef          	jal	ra,42c <string_uart>
 3e8:	fdc40793          	addi	a5,s0,-36
 3ec:	fe442583          	lw	a1,-28(s0)
 3f0:	00078513          	mv	a0,a5
 3f4:	12c000ef          	jal	ra,520 <int_string>
 3f8:	fdc44783          	lbu	a5,-36(s0)
 3fc:	00079863          	bnez	a5,40c <float_uart+0xf8>
 400:	63400513          	li	a0,1588
 404:	028000ef          	jal	ra,42c <string_uart>
 408:	0100006f          	j	418 <float_uart+0x104>
 40c:	fdc40793          	addi	a5,s0,-36
 410:	00078513          	mv	a0,a5
 414:	018000ef          	jal	ra,42c <string_uart>
 418:	00000013          	nop
 41c:	03c12083          	lw	ra,60(sp)
 420:	03812403          	lw	s0,56(sp)
 424:	04010113          	addi	sp,sp,64
 428:	00008067          	ret

0000042c <string_uart>:
 42c:	fd010113          	addi	sp,sp,-48
 430:	02812623          	sw	s0,44(sp)
 434:	03010413          	addi	s0,sp,48
 438:	fca42e23          	sw	a0,-36(s0)
 43c:	10800793          	li	a5,264
 440:	fef42623          	sw	a5,-20(s0)
 444:	0200006f          	j	464 <string_uart+0x38>
 448:	fdc42783          	lw	a5,-36(s0)
 44c:	0007c703          	lbu	a4,0(a5)
 450:	fec42783          	lw	a5,-20(s0)
 454:	00e78023          	sb	a4,0(a5)
 458:	fdc42783          	lw	a5,-36(s0)
 45c:	00178793          	addi	a5,a5,1
 460:	fcf42e23          	sw	a5,-36(s0)
 464:	fdc42783          	lw	a5,-36(s0)
 468:	0007c783          	lbu	a5,0(a5)
 46c:	fc079ee3          	bnez	a5,448 <string_uart+0x1c>
 470:	00000013          	nop
 474:	02c12403          	lw	s0,44(sp)
 478:	03010113          	addi	sp,sp,48
 47c:	00008067          	ret

00000480 <mod>:
 480:	fe010113          	addi	sp,sp,-32
 484:	00812e23          	sw	s0,28(sp)
 488:	02010413          	addi	s0,sp,32
 48c:	fea42623          	sw	a0,-20(s0)
 490:	feb42423          	sw	a1,-24(s0)
 494:	0140006f          	j	4a8 <mod+0x28>
 498:	fec42703          	lw	a4,-20(s0)
 49c:	fe842783          	lw	a5,-24(s0)
 4a0:	40f707b3          	sub	a5,a4,a5
 4a4:	fef42623          	sw	a5,-20(s0)
 4a8:	fec42703          	lw	a4,-20(s0)
 4ac:	fe842783          	lw	a5,-24(s0)
 4b0:	fef754e3          	bge	a4,a5,498 <mod+0x18>
 4b4:	fec42783          	lw	a5,-20(s0)
 4b8:	00078513          	mv	a0,a5
 4bc:	01c12403          	lw	s0,28(sp)
 4c0:	02010113          	addi	sp,sp,32
 4c4:	00008067          	ret

000004c8 <divd>:
 4c8:	fd010113          	addi	sp,sp,-48
 4cc:	02812623          	sw	s0,44(sp)
 4d0:	03010413          	addi	s0,sp,48
 4d4:	fca42e23          	sw	a0,-36(s0)
 4d8:	fcb42c23          	sw	a1,-40(s0)
 4dc:	fe042623          	sw	zero,-20(s0)
 4e0:	0200006f          	j	500 <divd+0x38>
 4e4:	fdc42703          	lw	a4,-36(s0)
 4e8:	fd842783          	lw	a5,-40(s0)
 4ec:	40f707b3          	sub	a5,a4,a5
 4f0:	fcf42e23          	sw	a5,-36(s0)
 4f4:	fec42783          	lw	a5,-20(s0)
 4f8:	00178793          	addi	a5,a5,1
 4fc:	fef42623          	sw	a5,-20(s0)
 500:	fdc42703          	lw	a4,-36(s0)
 504:	fd842783          	lw	a5,-40(s0)
 508:	fcf75ee3          	bge	a4,a5,4e4 <divd+0x1c>
 50c:	fec42783          	lw	a5,-20(s0)
 510:	00078513          	mv	a0,a5
 514:	02c12403          	lw	s0,44(sp)
 518:	03010113          	addi	sp,sp,48
 51c:	00008067          	ret

00000520 <int_string>:
 520:	fd010113          	addi	sp,sp,-48
 524:	02112623          	sw	ra,44(sp)
 528:	02812423          	sw	s0,40(sp)
 52c:	03010413          	addi	s0,sp,48
 530:	fca42e23          	sw	a0,-36(s0)
 534:	fcb42c23          	sw	a1,-40(s0)
 538:	fe042423          	sw	zero,-24(s0)
 53c:	fd842783          	lw	a5,-40(s0)
 540:	fef42223          	sw	a5,-28(s0)
 544:	0200006f          	j	564 <int_string+0x44>
 548:	fe842783          	lw	a5,-24(s0)
 54c:	00178793          	addi	a5,a5,1
 550:	fef42423          	sw	a5,-24(s0)
 554:	00a00593          	li	a1,10
 558:	fe442503          	lw	a0,-28(s0)
 55c:	f6dff0ef          	jal	ra,4c8 <divd>
 560:	fea42223          	sw	a0,-28(s0)
 564:	fe442783          	lw	a5,-28(s0)
 568:	fe0790e3          	bnez	a5,548 <int_string+0x28>
 56c:	fe042623          	sw	zero,-20(s0)
 570:	0600006f          	j	5d0 <int_string+0xb0>
 574:	00a00593          	li	a1,10
 578:	fd842503          	lw	a0,-40(s0)
 57c:	f05ff0ef          	jal	ra,480 <mod>
 580:	fea42023          	sw	a0,-32(s0)
 584:	00a00593          	li	a1,10
 588:	fd842503          	lw	a0,-40(s0)
 58c:	f3dff0ef          	jal	ra,4c8 <divd>
 590:	fca42c23          	sw	a0,-40(s0)
 594:	fe042783          	lw	a5,-32(s0)
 598:	0ff7f713          	andi	a4,a5,255
 59c:	fec42783          	lw	a5,-20(s0)
 5a0:	00178793          	addi	a5,a5,1
 5a4:	fe842683          	lw	a3,-24(s0)
 5a8:	40f687b3          	sub	a5,a3,a5
 5ac:	00078693          	mv	a3,a5
 5b0:	fdc42783          	lw	a5,-36(s0)
 5b4:	00d787b3          	add	a5,a5,a3
 5b8:	03070713          	addi	a4,a4,48
 5bc:	0ff77713          	andi	a4,a4,255
 5c0:	00e78023          	sb	a4,0(a5)
 5c4:	fec42783          	lw	a5,-20(s0)
 5c8:	00178793          	addi	a5,a5,1
 5cc:	fef42623          	sw	a5,-20(s0)
 5d0:	fec42703          	lw	a4,-20(s0)
 5d4:	fe842783          	lw	a5,-24(s0)
 5d8:	f8f74ee3          	blt	a4,a5,574 <int_string+0x54>
 5dc:	fe842783          	lw	a5,-24(s0)
 5e0:	fdc42703          	lw	a4,-36(s0)
 5e4:	00f707b3          	add	a5,a4,a5
 5e8:	00078023          	sb	zero,0(a5)
 5ec:	00000013          	nop
 5f0:	02c12083          	lw	ra,44(sp)
 5f4:	02812403          	lw	s0,40(sp)
 5f8:	03010113          	addi	sp,sp,48
 5fc:	00008067          	ret

Disassembly of section .rodata:

00000600 <.rodata>:
 600:	6552                	flw	fa0,20(sp)
 602:	746c7573          	csrrci	a0,0x746,24
 606:	003a                	c.slli	zero,0xe
 608:	ae14                	fsd	fa3,24(a2)
 60a:	6666c0a7          	fsq	ft6,1633(a3)
 60e:	4256                	lw	tp,84(sp)
 610:	0419                	addi	s0,s0,6
 612:	4104                	lw	s1,0(a0)
 614:	0a3d                	addi	s4,s4,15
 616:	d70ac10b          	0xd70ac10b
 61a:	000040e3          	bltz	zero,e1a <int_string+0x8fa>
 61e:	0000                	unimp
 620:	0000                	unimp
 622:	3f80                	fld	fs0,56(a5)
 624:	0000                	unimp
 626:	4000                	lw	s0,0(s0)
 628:	0000                	unimp
 62a:	4040                	lw	s0,4(s0)
 62c:	0000                	unimp
 62e:	c0a0                	sw	s0,64(s1)
 630:	002d                	c.nop	11
 632:	0000                	unimp
 634:	0030                	addi	a2,sp,8
 636:	0000                	unimp
 638:	002e                	c.slli	zero,0xb
 63a:	0000                	unimp
 63c:	0000                	unimp
 63e:	4120                	lw	s0,64(a0)

Disassembly of section .comment:

00000000 <.comment>:
   0:	3a434347          	fmsub.d	ft6,ft6,ft4,ft7,rmm
   4:	2820                	fld	fs0,80(s0)
   6:	69466953          	0x69466953
   a:	6576                	flw	fa0,92(sp)
   c:	4720                	lw	s0,72(a4)
   e:	38204343          	fmadd.s	ft6,ft0,ft2,ft7,rmm
  12:	332e                	fld	ft6,232(sp)
  14:	302e                	fld	ft0,232(sp)
  16:	322d                	jal	fffff940 <int_string+0xfffff420>
  18:	3130                	fld	fa2,96(a0)
  1a:	2e39                	jal	338 <float_uart+0x24>
  1c:	3830                	fld	fa2,112(s0)
  1e:	302e                	fld	ft0,232(sp)
  20:	2029                	jal	2a <_start+0x2a>
  22:	2e38                	fld	fa4,88(a2)
  24:	00302e33          	sgtz	t3,gp

Disassembly of section .riscv.attributes:

00000000 <.riscv.attributes>:
   0:	2041                	jal	80 <_start+0x80>
   2:	0000                	unimp
   4:	7200                	flw	fs0,32(a2)
   6:	7369                	lui	t1,0xffffa
   8:	01007663          	bgeu	zero,a6,14 <_start+0x14>
   c:	0016                	c.slli	zero,0x5
   e:	0000                	unimp
  10:	1004                	addi	s1,sp,32
  12:	7205                	lui	tp,0xfffe1
  14:	3376                	fld	ft6,376(sp)
  16:	6932                	flw	fs2,12(sp)
  18:	7032                	flw	ft0,44(sp)
  1a:	5f30                	lw	a2,120(a4)
  1c:	3266                	fld	ft4,120(sp)
  1e:	3070                	fld	fa2,224(s0)
	...
